Certificate:
    Data:
        Version: 3 (0x2)
        Serial Number: 62 (0x3e)
    Signature Algorithm: sha256WithRSAEncryption
        Issuer: CN=Raymond Leon
        Validity
            Not Before: Oct  9 22:39:50 2022 GMT
            Not After : Oct  6 22:39:50 2032 GMT
        Subject: CN=Intermediate Certificate Authority
        Subject Public Key Info:
            Public Key Algorithm: rsaEncryption
                Public-Key: (2048 bit)
                Modulus:
                    00:c4:95:94:19:62:33:f9:82:2d:35:7b:20:e6:c5:
                    72:ae:93:9e:03:fc:3a:6d:ec:86:01:98:76:7c:1d:
                    92:82:f5:bb:f4:32:a4:12:89:ed:af:f4:59:c7:fa:
                    70:49:86:ca:dd:f8:04:de:01:fd:34:02:41:45:23:
                    bf:e9:36:20:42:bf:46:6c:b9:48:53:fa:e7:41:b3:
                    c7:ed:dc:3b:b8:19:65:0b:50:a4:f8:b1:9d:dc:5d:
                    bd:c8:e2:d6:2c:6e:62:17:7c:62:69:35:14:c6:71:
                    11:d9:c2:85:cb:aa:6e:9c:8a:85:db:44:6d:8d:4c:
                    83:4c:77:8c:14:59:df:46:05:38:a7:62:9f:70:c4:
                    f2:ce:40:62:f4:d6:04:c7:e3:05:17:bf:1e:1e:2e:
                    ff:40:cf:5b:01:28:56:c8:74:11:db:a8:fd:d4:b0:
                    86:b1:22:5e:9a:6c:6b:c4:9e:47:93:99:00:30:21:
                    fa:f5:8b:a2:2b:f0:d6:e1:8a:17:d1:2f:d2:d3:91:
                    d1:8e:18:27:3c:84:ec:34:a6:d7:77:20:e2:81:fb:
                    05:c6:ce:cc:b9:dc:be:9a:89:c5:09:b8:8e:a5:39:
                    f5:29:e7:79:4e:11:67:5f:0d:f2:8f:61:73:f5:bd:
                    fe:1a:c8:49:5a:e7:f0:88:b4:6b:12:3c:bd:ec:07:
                    6a:b9
                Exponent: 65537 (0x10001)
        X509v3 extensions:
            X509v3 Basic Constraints: 
                CA:TRUE
    Signature Algorithm: sha256WithRSAEncryption
         3b:b8:f8:d9:a9:33:2a:da:1f:95:6b:18:68:12:57:2e:78:77:
         f5:cf:03:8f:bb:68:33:46:b4:59:e4:84:88:0e:0b:f9:90:ff:
         8e:5a:0a:eb:fa:98:23:f3:9a:99:ed:aa:70:61:d3:0c:92:45:
         1d:5d:0c:43:f4:4f:f7:c8:4f:05:b3:2c:59:cd:56:91:13:e2:
         6b:02:d7:73:33:c1:62:13:b4:49:11:b7:ad:a1:1c:6b:23:35:
         7d:50:5f:0e:da:20:64:f9:93:36:72:8d:56:11:36:96:4d:4b:
         e5:d0:45:a7:be:f5:e0:ac:d4:a2:29:87:9e:8c:ca:0e:19:9d:
         4d:f3:18:2e:1e:f2:2e:18:1e:fa:e9:ab:47:c9:72:c3:10:20:
         c9:c3:60:24:f8:b9:35:2b:ee:7d:53:af:31:ee:73:11:70:84:
         fb:4c:c9:47:dd:83:09:b5:0b:8d:b2:6b:c2:98:d3:b0:bd:a4:
         04:97:15:80:64:9a:e9:4c:33:d6:30:68:3f:ea:65:a8:36:19:
         21:8a:96:a2:35:17:f2:ec:8e:4a:c7:6a:d7:5e:97:2d:e5:6a:
         6d:95:b4:1f:29:94:37:e3:91:37:a3:be:78:cf:f4:15:f4:d8:
         ce:fd:f4:26:1b:35:2f:52:b5:1b:75:b4:ca:59:24:94:b7:93:
         c1:86:17:cc
-----BEGIN CERTIFICATE-----
MIICzzCCAbegAwIBAgIBPjANBgkqhkiG9w0BAQsFADAXMRUwEwYDVQQDDAxSYXlt
b25kIExlb24wHhcNMjIxMDA5MjIzOTUwWhcNMzIxMDA2MjIzOTUwWjAtMSswKQYD
VQQDDCJJbnRlcm1lZGlhdGUgQ2VydGlmaWNhdGUgQXV0aG9yaXR5MIIBIjANBgkq
hkiG9w0BAQEFAAOCAQ8AMIIBCgKCAQEAxJWUGWIz+YItNXsg5sVyrpOeA/w6beyG
AZh2fB2SgvW79DKkEontr/RZx/pwSYbK3fgE3gH9NAJBRSO/6TYgQr9GbLlIU/rn
QbPH7dw7uBllC1Ck+LGd3F29yOLWLG5iF3xiaTUUxnER2cKFy6punIqF20RtjUyD
THeMFFnfRgU4p2KfcMTyzkBi9NYEx+MFF78eHi7/QM9bAShWyHQR26j91LCGsSJe
mmxrxJ5Hk5kAMCH69YuiK/DW4YoX0S/S05HRjhgnPITsNKbXdyDigfsFxs7Mudy+
monFCbiOpTn1Ked5ThFnXw3yj2Fz9b3+GshJWufwiLRrEjy97AdquQIDAQABoxAw
DjAMBgNVHRMEBTADAQH/MA0GCSqGSIb3DQEBCwUAA4IBAQA7uPjZqTMq2h+Vaxho
ElcueHf1zwOPu2gzRrRZ5ISIDgv5kP+OWgrr+pgj85qZ7apwYdMMkkUdXQxD9E/3
yE8FsyxZzVaRE+JrAtdzM8FiE7RJEbetoRxrIzV9UF8O2iBk+ZM2co1WETaWTUvl
0EWnvvXgrNSiKYeejMoOGZ1N8xguHvIuGB766atHyXLDECDJw2Ak+Lk1K+59U68x
7nMRcIT7TMlH3YMJtQuNsmvCmNOwvaQElxWAZJrpTDPWMGg/6mWoNhkhipaiNRfy
7I5Kx2rXXpct5WptlbQfKZQ345E3o754z/QV9NjO/fQmGzUvUrUbdbTKWSSUt5PB
hhfM
-----END CERTIFICATE-----
Certificate:
    Data:
        Version: 3 (0x2)
        Serial Number: 61 (0x3d)
    Signature Algorithm: sha256WithRSAEncryption
        Issuer: CN=Raymond Leon
        Validity
            Not Before: Oct  9 22:38:09 2022 GMT
            Not After : Oct  6 22:38:09 2032 GMT
        Subject: CN=Raymond Leon
        Subject Public Key Info:
            Public Key Algorithm: rsaEncryption
                Public-Key: (2048 bit)
                Modulus:
                    00:e1:1a:a9:a4:af:1a:75:22:02:23:22:f4:21:d8:
                    c3:6a:98:f8:c0:70:57:f9:50:71:5b:9a:13:96:96:
                    75:f0:4f:b4:9d:72:eb:74:c2:e5:c2:04:68:2b:14:
                    1b:a8:af:eb:9a:3a:36:fd:01:64:29:9e:9d:ab:78:
                    80:53:27:6e:9c:9d:fc:7c:fb:54:d9:2d:f5:82:98:
                    08:d3:a7:55:32:e0:f5:31:99:f9:fa:3f:75:72:38:
                    03:ea:eb:44:7b:12:41:4f:78:15:39:e0:49:82:51:
                    de:8b:99:a8:1e:66:e2:62:17:d8:ed:b0:2f:2a:e3:
                    23:80:f0:ec:93:02:15:ca:39:4e:84:73:15:93:7e:
                    66:6e:a7:64:55:97:96:03:74:e6:92:5e:14:71:a0:
                    ee:a5:af:e5:06:a5:56:ed:40:32:bf:76:e6:d5:bd:
                    83:3b:04:d6:42:4c:72:bf:2a:4c:1b:ab:52:4f:60:
                    37:7a:8e:5b:0d:53:7e:26:be:b6:d3:e5:aa:cb:02:
                    3f:fa:f8:d6:87:98:07:9f:00:31:c5:ff:02:1b:8b:
                    fd:0c:0d:95:4f:48:6c:4f:1e:9a:18:da:36:5e:90:
                    4f:96:bf:e9:9e:5c:ac:57:8e:ee:64:40:2e:dd:b2:
                    34:f9:0e:9c:83:99:85:cc:70:72:df:31:ff:b1:5c:
                    aa:6b
                Exponent: 65537 (0x10001)
        X509v3 extensions:
            X509v3 Basic Constraints: 
                CA:TRUE
    Signature Algorithm: sha256WithRSAEncryption
         24:ac:ea:0f:43:51:47:26:9b:dc:e4:c2:59:59:59:11:e3:55:
         81:4b:ad:f8:d4:ed:29:51:2e:16:59:e2:7c:78:4b:6e:7e:99:
         ba:7e:74:f5:25:60:82:66:8a:1e:65:1e:b8:6b:38:ec:2c:c7:
         c8:e8:15:77:0e:68:9c:3d:11:38:2c:d5:ff:4d:d0:c9:9c:02:
         db:7c:f0:82:1f:75:72:1d:1e:1f:b6:c7:77:6a:f5:e1:90:85:
         72:4d:e7:fc:cc:72:4d:24:20:ed:f4:72:59:8e:a3:01:ef:14:
         3a:ad:6d:ad:99:96:d0:17:ce:5d:6e:90:37:0e:57:1c:d5:4c:
         c8:b7:b0:ae:f0:be:de:be:fc:57:23:b1:d3:ee:ce:7d:c4:06:
         3e:46:a0:3f:c9:ee:45:28:e8:8e:e9:4c:ee:d9:5f:d3:77:66:
         21:58:49:b9:12:29:a7:23:ac:0e:54:4a:5f:36:e4:33:66:e9:
         57:08:f9:e4:b7:bb:d6:e0:f4:63:36:02:d6:3a:b1:91:04:23:
         74:d4:b2:4f:b3:fa:d4:74:4b:10:26:49:7f:ee:76:48:5c:26:
         2a:7c:6c:94:34:27:7d:34:2f:2e:83:17:cd:9c:f8:93:6d:2b:
         12:2d:46:57:c7:7f:f3:05:ca:5b:d1:f4:84:08:4e:33:54:2f:
         5a:d0:6f:e7
-----BEGIN CERTIFICATE-----
MIICuTCCAaGgAwIBAgIBPTANBgkqhkiG9w0BAQsFADAXMRUwEwYDVQQDDAxSYXlt
b25kIExlb24wHhcNMjIxMDA5MjIzODA5WhcNMzIxMDA2MjIzODA5WjAXMRUwEwYD
VQQDDAxSYXltb25kIExlb24wggEiMA0GCSqGSIb3DQEBAQUAA4IBDwAwggEKAoIB
AQDhGqmkrxp1IgIjIvQh2MNqmPjAcFf5UHFbmhOWlnXwT7Sdcut0wuXCBGgrFBuo
r+uaOjb9AWQpnp2reIBTJ26cnfx8+1TZLfWCmAjTp1Uy4PUxmfn6P3VyOAPq60R7
EkFPeBU54EmCUd6LmageZuJiF9jtsC8q4yOA8OyTAhXKOU6EcxWTfmZup2RVl5YD
dOaSXhRxoO6lr+UGpVbtQDK/dubVvYM7BNZCTHK/Kkwbq1JPYDd6jlsNU34mvrbT
5arLAj/6+NaHmAefADHF/wIbi/0MDZVPSGxPHpoY2jZekE+Wv+meXKxXju5kQC7d
sjT5DpyDmYXMcHLfMf+xXKprAgMBAAGjEDAOMAwGA1UdEwQFMAMBAf8wDQYJKoZI
hvcNAQELBQADggEBACSs6g9DUUcmm9zkwllZWRHjVYFLrfjU7SlRLhZZ4nx4S25+
mbp+dPUlYIJmih5lHrhrOOwsx8joFXcOaJw9ETgs1f9N0MmcAtt88IIfdXIdHh+2
x3dq9eGQhXJN5/zMck0kIO30clmOowHvFDqtba2ZltAXzl1ukDcOVxzVTMi3sK7w
vt6+/FcjsdPuzn3EBj5GoD/J7kUo6I7pTO7ZX9N3ZiFYSbkSKacjrA5USl825DNm
6VcI+eS3u9bg9GM2AtY6sZEEI3TUsk+z+tR0SxAmSX/udkhcJip8bJQ0J300Ly6D
F82c+JNtKxItRlfHf/MFylvR9IQITjNUL1rQb+c=
-----END CERTIFICATE-----
