Certificate:
    Data:
        Version: 3 (0x2)
        Serial Number: 2 (0x2)
    Signature Algorithm: sha256WithRSAEncryption
        Issuer: CN=Raymond Leon
        Validity
            Not Before: Oct 18 18:12:37 2022 GMT
            Not After : Nov 20 18:12:37 2023 GMT
        Subject: CN=Intermediate Certificate Authority
        Subject Public Key Info:
            Public Key Algorithm: rsaEncryption
                Public-Key: (2048 bit)
                Modulus:
                    00:dd:fc:9c:02:1d:ba:60:d9:d8:a1:6e:8d:d8:d9:
                    96:5b:f5:51:06:17:6e:5e:dc:12:29:65:fb:b4:8e:
                    c2:da:8c:06:a1:40:0e:31:a9:c1:d2:21:a7:4b:3d:
                    a7:99:6c:44:c9:7d:d1:fd:7e:0c:87:5d:a4:52:3f:
                    a6:ad:fb:fd:fb:ae:8d:47:05:8a:95:f0:57:ed:dd:
                    7f:57:97:1e:54:1d:26:68:fa:96:d9:2d:13:a9:d1:
                    f1:59:c9:6b:54:bb:20:cf:59:ef:c0:f0:79:9e:a5:
                    a2:58:05:d8:79:27:03:b8:b3:dc:26:80:fc:54:ce:
                    bb:31:b1:15:d9:fe:7a:a9:02:c3:c0:75:75:a6:a7:
                    35:82:1d:f1:af:5b:3e:52:30:66:6a:84:a1:02:6d:
                    f0:34:db:be:7e:05:94:9a:9e:a5:b6:6e:5f:22:03:
                    b2:83:fb:60:cf:ad:b0:e8:0e:3a:7f:19:56:60:9c:
                    fa:5f:be:5a:ef:63:39:00:76:75:bd:85:f3:95:b6:
                    7e:ec:78:0d:fd:55:bc:b9:f7:65:46:05:ea:ad:79:
                    fe:68:85:ec:0b:cb:c1:3f:9e:e1:e5:c7:24:b3:58:
                    a8:98:9b:38:f7:64:ce:7f:18:1a:ca:e9:65:8c:a9:
                    16:d7:ba:f9:e4:fb:56:ef:a1:82:4c:6a:7e:c9:5b:
                    68:e7
                Exponent: 65537 (0x10001)
        X509v3 extensions:
            X509v3 Basic Constraints: 
                CA:TRUE
    Signature Algorithm: sha256WithRSAEncryption
         86:e5:ca:67:09:65:d0:02:bc:70:d4:2c:e0:b1:a0:51:27:9f:
         db:4a:64:e2:9d:79:2d:6c:1c:fd:8b:6e:1e:5e:64:61:e2:2e:
         c8:bb:de:05:ea:3c:ad:07:27:5f:23:83:f7:95:bd:f5:bd:e2:
         92:7b:69:cb:41:54:9b:ca:53:f4:73:53:c8:c1:c4:e6:4c:af:
         10:ea:84:ed:04:5b:f1:45:8a:8e:a4:e8:60:40:df:b5:4c:ce:
         b7:f6:8f:80:60:03:c6:c4:64:0d:61:b1:13:8b:ca:7c:d9:98:
         7b:db:df:44:5b:65:83:16:f8:31:74:08:d2:cb:2c:b7:9c:8f:
         f0:7f:4c:8e:24:7a:27:95:74:04:d6:a5:91:ce:27:10:45:5c:
         0e:f7:18:c3:d2:0b:a1:d6:b7:4e:52:7a:8b:d1:09:f0:a2:4d:
         3a:09:54:57:6b:b0:84:41:d6:62:f7:4c:1c:66:06:4f:c2:c3:
         ed:85:ec:62:81:3f:1e:d3:3b:b6:17:8d:a8:ee:ad:b5:99:0f:
         12:f7:79:2f:78:20:99:7b:53:a2:53:8a:16:ac:f1:82:22:e9:
         8d:a2:37:2c:17:f4:d6:63:a6:74:27:96:99:25:fe:b0:98:02:
         94:88:9e:77:26:a4:bd:a9:41:cf:3f:c9:06:36:3e:a0:11:06:
         83:7c:0a:24
-----BEGIN CERTIFICATE-----
MIICzzCCAbegAwIBAgIBAjANBgkqhkiG9w0BAQsFADAXMRUwEwYDVQQDDAxSYXlt
b25kIExlb24wHhcNMjIxMDE4MTgxMjM3WhcNMjMxMTIwMTgxMjM3WjAtMSswKQYD
VQQDDCJJbnRlcm1lZGlhdGUgQ2VydGlmaWNhdGUgQXV0aG9yaXR5MIIBIjANBgkq
hkiG9w0BAQEFAAOCAQ8AMIIBCgKCAQEA3fycAh26YNnYoW6N2NmWW/VRBhduXtwS
KWX7tI7C2owGoUAOManB0iGnSz2nmWxEyX3R/X4Mh12kUj+mrfv9+66NRwWKlfBX
7d1/V5ceVB0maPqW2S0TqdHxWclrVLsgz1nvwPB5nqWiWAXYeScDuLPcJoD8VM67
MbEV2f56qQLDwHV1pqc1gh3xr1s+UjBmaoShAm3wNNu+fgWUmp6ltm5fIgOyg/tg
z62w6A46fxlWYJz6X75a72M5AHZ1vYXzlbZ+7HgN/VW8ufdlRgXqrXn+aIXsC8vB
P57h5ccks1iomJs492TOfxgayulljKkW17r55PtW76GCTGp+yVto5wIDAQABoxAw
DjAMBgNVHRMEBTADAQH/MA0GCSqGSIb3DQEBCwUAA4IBAQCG5cpnCWXQArxw1Czg
saBRJ5/bSmTinXktbBz9i24eXmRh4i7Iu94F6jytBydfI4P3lb31veKSe2nLQVSb
ylP0c1PIwcTmTK8Q6oTtBFvxRYqOpOhgQN+1TM639o+AYAPGxGQNYbETi8p82Zh7
299EW2WDFvgxdAjSyyy3nI/wf0yOJHonlXQE1qWRzicQRVwO9xjD0guh1rdOUnqL
0Qnwok06CVRXa7CEQdZi90wcZgZPwsPthexigT8e0zu2F42o7q21mQ8S93kveCCZ
e1OiU4oWrPGCIumNojcsF/TWY6Z0J5aZJf6wmAKUiJ53JqS9qUHPP8kGNj6gEQaD
fAok
-----END CERTIFICATE-----
