Certificate:
    Data:
        Version: 3 (0x2)
        Serial Number: 1 (0x1)
    Signature Algorithm: sha256WithRSAEncryption
        Issuer: CN=Raymond Leon
        Validity
            Not Before: Oct 18 17:57:54 2022 GMT
            Not After : Nov 20 17:57:54 2023 GMT
        Subject: CN=Raymond Leon
        Subject Public Key Info:
            Public Key Algorithm: rsaEncryption
                Public-Key: (2048 bit)
                Modulus:
                    00:b5:f6:17:b7:ec:ac:a1:da:4c:8c:a3:ab:cc:ad:
                    64:fa:fe:6f:4a:26:9d:30:2a:53:15:49:a5:0c:4d:
                    6f:c4:b4:f1:de:b3:12:0b:98:45:31:0d:92:34:47:
                    fe:cf:78:8e:57:7f:dd:b1:d5:4b:40:c2:28:c4:9e:
                    56:a6:d1:9a:7e:9f:49:a6:68:50:4f:31:c8:2f:ca:
                    1f:0c:d0:40:85:61:c9:0e:99:1e:7b:ce:99:c1:b7:
                    c0:d8:4a:e5:a7:c2:da:46:57:4e:0d:65:b3:4b:ed:
                    d2:cd:7f:ba:d6:93:0b:0d:a8:b4:7a:3a:8a:06:90:
                    cb:41:3b:cb:2e:ef:9e:af:32:35:e0:fe:60:f3:8a:
                    7b:8e:85:7e:04:a0:10:b7:1d:18:48:c8:7d:3f:47:
                    76:b5:0d:d6:44:8b:de:01:80:63:e9:48:22:d9:0e:
                    5a:86:e3:33:d6:a3:a3:2a:8e:dc:5a:68:d8:02:43:
                    b8:43:00:f0:8e:e9:6e:bc:f3:d8:ae:0c:58:50:dd:
                    f5:22:c3:13:d0:75:61:8c:97:45:03:8b:45:8e:51:
                    2c:6a:5a:da:d4:88:da:6b:4d:75:65:c4:07:34:aa:
                    d4:3f:60:80:8c:33:53:16:9d:d4:d4:8e:0b:ef:8a:
                    11:5a:59:3e:92:a1:a9:f0:d7:10:03:3f:59:ea:17:
                    ed:51
                Exponent: 65537 (0x10001)
        X509v3 extensions:
            X509v3 Basic Constraints: 
                CA:TRUE
    Signature Algorithm: sha256WithRSAEncryption
         47:1e:0f:78:af:2e:16:3d:af:8c:4d:66:fd:47:c4:85:5a:d7:
         dd:cf:98:8d:d7:57:59:6e:13:bc:d1:71:26:8e:c4:d8:dd:22:
         9c:cf:23:2c:bc:e8:5a:3f:fa:e2:f1:64:46:25:1a:74:4d:55:
         e2:a1:65:19:3c:6d:81:d3:de:23:da:3e:0e:cb:28:a6:20:e5:
         42:20:b2:35:61:16:ce:76:af:ed:c0:43:da:69:d0:16:fa:22:
         56:44:9f:c9:c3:fd:74:1b:cf:c7:64:8f:9a:bd:4f:a7:00:63:
         a9:09:f5:d8:77:46:8d:22:bc:0a:60:42:89:35:50:05:cb:95:
         e0:b3:a6:72:70:87:61:6d:fe:d5:dc:59:13:bc:e5:a0:33:74:
         b0:22:b1:f1:e5:57:7a:75:88:df:e3:d3:1d:3d:b2:9d:81:51:
         1b:24:8f:6e:27:1a:46:f6:74:ea:d6:02:9e:0f:bc:55:f1:84:
         40:6d:db:3a:56:b9:b6:5e:93:a0:af:c7:6f:d0:87:82:da:97:
         0c:b4:2c:27:cc:05:3d:f1:08:77:e7:22:fc:7d:0a:3b:52:59:
         ec:a2:f6:88:1b:bb:06:60:7e:46:0d:87:81:fb:52:b3:4a:0a:
         9c:a6:03:9f:fd:5c:43:78:ff:a3:57:c2:a8:b4:35:42:2c:54:
         8d:9a:6f:21
-----BEGIN CERTIFICATE-----
MIICuTCCAaGgAwIBAgIBATANBgkqhkiG9w0BAQsFADAXMRUwEwYDVQQDDAxSYXlt
b25kIExlb24wHhcNMjIxMDE4MTc1NzU0WhcNMjMxMTIwMTc1NzU0WjAXMRUwEwYD
VQQDDAxSYXltb25kIExlb24wggEiMA0GCSqGSIb3DQEBAQUAA4IBDwAwggEKAoIB
AQC19he37Kyh2kyMo6vMrWT6/m9KJp0wKlMVSaUMTW/EtPHesxILmEUxDZI0R/7P
eI5Xf92x1UtAwijEnlam0Zp+n0mmaFBPMcgvyh8M0ECFYckOmR57zpnBt8DYSuWn
wtpGV04NZbNL7dLNf7rWkwsNqLR6OooGkMtBO8su756vMjXg/mDzinuOhX4EoBC3
HRhIyH0/R3a1DdZEi94BgGPpSCLZDlqG4zPWo6MqjtxaaNgCQ7hDAPCO6W6889iu
DFhQ3fUiwxPQdWGMl0UDi0WOUSxqWtrUiNprTXVlxAc0qtQ/YICMM1MWndTUjgvv
ihFaWT6Soanw1xADP1nqF+1RAgMBAAGjEDAOMAwGA1UdEwQFMAMBAf8wDQYJKoZI
hvcNAQELBQADggEBAEceD3ivLhY9r4xNZv1HxIVa193PmI3XV1luE7zRcSaOxNjd
IpzPIyy86Fo/+uLxZEYlGnRNVeKhZRk8bYHT3iPaPg7LKKYg5UIgsjVhFs52r+3A
Q9pp0Bb6IlZEn8nD/XQbz8dkj5q9T6cAY6kJ9dh3Ro0ivApgQok1UAXLleCzpnJw
h2Ft/tXcWRO85aAzdLAisfHlV3p1iN/j0x09sp2BURskj24nGkb2dOrWAp4PvFXx
hEBt2zpWubZek6Cvx2/Qh4Lalwy0LCfMBT3xCHfnIvx9CjtSWeyi9ogbuwZgfkYN
h4H7UrNKCpymA5/9XEN4/6NXwqi0NUIsVI2abyE=
-----END CERTIFICATE-----
