Certificate:
    Data:
        Version: 1 (0x0)
        Serial Number: 1 (0x1)
    Signature Algorithm: md5WithRSAEncryption
        Issuer: CN=Raymond Leon
        Validity
            Not Before: Oct  4 18:56:06 2022 GMT
            Not After : Oct  1 18:56:06 2032 GMT
        Subject: CN=Raymond Leon
        Subject Public Key Info:
            Public Key Algorithm: rsaEncryption
                Public-Key: (2048 bit)
                Modulus:
                    00:b3:c9:f0:d3:e3:aa:b2:4f:2f:23:02:7a:93:f3:
                    c3:22:bd:c5:e0:9e:73:88:55:98:df:8e:1e:fc:2a:
                    36:12:62:f8:58:f2:79:1f:98:f3:d6:2d:31:bd:2d:
                    94:7b:55:2d:2e:f6:7a:e6:45:7a:72:a2:4c:c1:f7:
                    5d:4b:14:4f:83:b8:cb:5d:5e:38:cf:db:60:5a:be:
                    fa:b2:de:e1:32:16:f9:60:48:26:f5:00:a7:cc:3c:
                    45:43:25:23:55:34:39:75:ec:a8:ca:87:66:8c:6b:
                    d2:c6:e4:f9:4f:31:e7:d0:dd:ef:8d:59:ef:f3:67:
                    ca:90:51:b7:ac:db:b4:dc:b0:9f:a9:5e:08:c5:bf:
                    7f:27:09:a7:2c:01:fd:e9:bb:4c:6a:58:a5:58:bb:
                    e1:15:38:96:5e:a4:41:af:02:a8:c6:6d:6e:24:57:
                    93:7b:62:68:42:34:27:fa:8d:b1:df:25:bb:49:6f:
                    c6:ff:8a:e9:99:0f:81:10:d2:8c:cb:5b:7c:e5:87:
                    e5:8c:1b:f5:93:3e:c8:42:de:a8:73:a5:eb:29:17:
                    90:d9:27:98:f4:ab:cc:c0:b9:98:aa:fc:64:8f:b2:
                    e0:3c:2b:82:b0:36:56:61:47:63:a2:e5:d1:d8:a1:
                    8b:5e:9a:76:90:4d:94:4a:39:d8:9c:74:12:65:3b:
                    c5:2f
                Exponent: 65537 (0x10001)
    Signature Algorithm: md5WithRSAEncryption
         76:19:28:ee:b6:59:d4:3d:39:25:75:22:f1:e9:4e:26:f9:4a:
         ce:cb:fb:e0:1a:ba:2a:82:72:54:ae:e6:c3:8c:67:5f:61:42:
         68:19:d0:82:03:c0:36:a6:cd:fd:83:7a:e7:87:99:a0:89:ab:
         29:69:19:63:56:ff:06:74:8f:e1:37:e4:8f:01:b4:45:07:ab:
         ab:2d:32:02:97:02:82:ee:02:a9:f9:8a:16:23:bb:69:b4:f5:
         7b:bb:ad:4b:34:36:61:5e:5e:14:74:56:d7:55:35:94:d8:70:
         97:7e:14:b9:fd:f0:8c:2f:79:b6:e6:b4:7c:fe:18:e0:4e:12:
         58:39:0f:32:2f:91:da:4e:32:b4:34:5e:bc:59:47:f2:67:6f:
         d5:8f:c2:42:29:50:97:cb:9d:d9:87:c0:53:41:71:f4:07:11:
         f7:41:02:f8:42:18:fe:84:2a:87:34:2f:1c:9f:dc:0a:59:8c:
         30:81:b8:2d:1f:ca:31:59:8f:37:28:9f:b6:08:7f:25:cc:e7:
         be:cc:e2:21:75:df:88:0a:9b:49:42:04:da:cd:c4:b2:b7:3c:
         37:2b:d5:2b:f9:84:ad:ef:3c:54:71:d5:a1:78:71:67:64:ef:
         95:53:2e:5a:ec:52:a5:96:cf:14:0e:e6:94:4b:e2:3e:d8:5d:
         35:dd:05:b3
-----BEGIN CERTIFICATE-----
MIICojCCAYoCAQEwDQYJKoZIhvcNAQEEBQAwFzEVMBMGA1UEAwwMUmF5bW9uZCBM
ZW9uMB4XDTIyMTAwNDE4NTYwNloXDTMyMTAwMTE4NTYwNlowFzEVMBMGA1UEAwwM
UmF5bW9uZCBMZW9uMIIBIjANBgkqhkiG9w0BAQEFAAOCAQ8AMIIBCgKCAQEAs8nw
0+Oqsk8vIwJ6k/PDIr3F4J5ziFWY344e/Co2EmL4WPJ5H5jz1i0xvS2Ue1UtLvZ6
5kV6cqJMwfddSxRPg7jLXV44z9tgWr76st7hMhb5YEgm9QCnzDxFQyUjVTQ5deyo
yodmjGvSxuT5TzHn0N3vjVnv82fKkFG3rNu03LCfqV4Ixb9/JwmnLAH96btMalil
WLvhFTiWXqRBrwKoxm1uJFeTe2JoQjQn+o2x3yW7SW/G/4rpmQ+BENKMy1t85Yfl
jBv1kz7IQt6oc6XrKReQ2SeY9KvMwLmYqvxkj7LgPCuCsDZWYUdjouXR2KGLXpp2
kE2USjnYnHQSZTvFLwIDAQABMA0GCSqGSIb3DQEBBAUAA4IBAQB2GSjutlnUPTkl
dSLx6U4m+UrOy/vgGroqgnJUrubDjGdfYUJoGdCCA8A2ps39g3rnh5mgiaspaRlj
Vv8GdI/hN+SPAbRFB6urLTIClwKC7gKp+YoWI7tptPV7u61LNDZhXl4UdFbXVTWU
2HCXfhS5/fCML3m25rR8/hjgThJYOQ8yL5HaTjK0NF68WUfyZ2/Vj8JCKVCXy53Z
h8BTQXH0BxH3QQL4Qhj+hCqHNC8cn9wKWYwwgbgtH8oxWY83KJ+2CH8lzOe+zOIh
dd+ICptJQgTazcSytzw3K9Ur+YSt7zxUcdWheHFnZO+VUy5a7FKlls8UDuaUS+I+
2F013QWz
-----END CERTIFICATE-----
