Certificate:
    Data:
        Version: 3 (0x2)
        Serial Number: 62 (0x3e)
    Signature Algorithm: sha256WithRSAEncryption
        Issuer: CN=Raymond Leon
        Validity
            Not Before: Oct  9 22:39:50 2022 GMT
            Not After : Oct  6 22:39:50 2032 GMT
        Subject: CN=Intermediate Certificate Authority
        Subject Public Key Info:
            Public Key Algorithm: rsaEncryption
                Public-Key: (2048 bit)
                Modulus:
                    00:c4:95:94:19:62:33:f9:82:2d:35:7b:20:e6:c5:
                    72:ae:93:9e:03:fc:3a:6d:ec:86:01:98:76:7c:1d:
                    92:82:f5:bb:f4:32:a4:12:89:ed:af:f4:59:c7:fa:
                    70:49:86:ca:dd:f8:04:de:01:fd:34:02:41:45:23:
                    bf:e9:36:20:42:bf:46:6c:b9:48:53:fa:e7:41:b3:
                    c7:ed:dc:3b:b8:19:65:0b:50:a4:f8:b1:9d:dc:5d:
                    bd:c8:e2:d6:2c:6e:62:17:7c:62:69:35:14:c6:71:
                    11:d9:c2:85:cb:aa:6e:9c:8a:85:db:44:6d:8d:4c:
                    83:4c:77:8c:14:59:df:46:05:38:a7:62:9f:70:c4:
                    f2:ce:40:62:f4:d6:04:c7:e3:05:17:bf:1e:1e:2e:
                    ff:40:cf:5b:01:28:56:c8:74:11:db:a8:fd:d4:b0:
                    86:b1:22:5e:9a:6c:6b:c4:9e:47:93:99:00:30:21:
                    fa:f5:8b:a2:2b:f0:d6:e1:8a:17:d1:2f:d2:d3:91:
                    d1:8e:18:27:3c:84:ec:34:a6:d7:77:20:e2:81:fb:
                    05:c6:ce:cc:b9:dc:be:9a:89:c5:09:b8:8e:a5:39:
                    f5:29:e7:79:4e:11:67:5f:0d:f2:8f:61:73:f5:bd:
                    fe:1a:c8:49:5a:e7:f0:88:b4:6b:12:3c:bd:ec:07:
                    6a:b9
                Exponent: 65537 (0x10001)
        X509v3 extensions:
            X509v3 Basic Constraints: 
                CA:TRUE
    Signature Algorithm: sha256WithRSAEncryption
         3b:b8:f8:d9:a9:33:2a:da:1f:95:6b:18:68:12:57:2e:78:77:
         f5:cf:03:8f:bb:68:33:46:b4:59:e4:84:88:0e:0b:f9:90:ff:
         8e:5a:0a:eb:fa:98:23:f3:9a:99:ed:aa:70:61:d3:0c:92:45:
         1d:5d:0c:43:f4:4f:f7:c8:4f:05:b3:2c:59:cd:56:91:13:e2:
         6b:02:d7:73:33:c1:62:13:b4:49:11:b7:ad:a1:1c:6b:23:35:
         7d:50:5f:0e:da:20:64:f9:93:36:72:8d:56:11:36:96:4d:4b:
         e5:d0:45:a7:be:f5:e0:ac:d4:a2:29:87:9e:8c:ca:0e:19:9d:
         4d:f3:18:2e:1e:f2:2e:18:1e:fa:e9:ab:47:c9:72:c3:10:20:
         c9:c3:60:24:f8:b9:35:2b:ee:7d:53:af:31:ee:73:11:70:84:
         fb:4c:c9:47:dd:83:09:b5:0b:8d:b2:6b:c2:98:d3:b0:bd:a4:
         04:97:15:80:64:9a:e9:4c:33:d6:30:68:3f:ea:65:a8:36:19:
         21:8a:96:a2:35:17:f2:ec:8e:4a:c7:6a:d7:5e:97:2d:e5:6a:
         6d:95:b4:1f:29:94:37:e3:91:37:a3:be:78:cf:f4:15:f4:d8:
         ce:fd:f4:26:1b:35:2f:52:b5:1b:75:b4:ca:59:24:94:b7:93:
         c1:86:17:cc
-----BEGIN CERTIFICATE-----
MIICzzCCAbegAwIBAgIBPjANBgkqhkiG9w0BAQsFADAXMRUwEwYDVQQDDAxSYXlt
b25kIExlb24wHhcNMjIxMDA5MjIzOTUwWhcNMzIxMDA2MjIzOTUwWjAtMSswKQYD
VQQDDCJJbnRlcm1lZGlhdGUgQ2VydGlmaWNhdGUgQXV0aG9yaXR5MIIBIjANBgkq
hkiG9w0BAQEFAAOCAQ8AMIIBCgKCAQEAxJWUGWIz+YItNXsg5sVyrpOeA/w6beyG
AZh2fB2SgvW79DKkEontr/RZx/pwSYbK3fgE3gH9NAJBRSO/6TYgQr9GbLlIU/rn
QbPH7dw7uBllC1Ck+LGd3F29yOLWLG5iF3xiaTUUxnER2cKFy6punIqF20RtjUyD
THeMFFnfRgU4p2KfcMTyzkBi9NYEx+MFF78eHi7/QM9bAShWyHQR26j91LCGsSJe
mmxrxJ5Hk5kAMCH69YuiK/DW4YoX0S/S05HRjhgnPITsNKbXdyDigfsFxs7Mudy+
monFCbiOpTn1Ked5ThFnXw3yj2Fz9b3+GshJWufwiLRrEjy97AdquQIDAQABoxAw
DjAMBgNVHRMEBTADAQH/MA0GCSqGSIb3DQEBCwUAA4IBAQA7uPjZqTMq2h+Vaxho
ElcueHf1zwOPu2gzRrRZ5ISIDgv5kP+OWgrr+pgj85qZ7apwYdMMkkUdXQxD9E/3
yE8FsyxZzVaRE+JrAtdzM8FiE7RJEbetoRxrIzV9UF8O2iBk+ZM2co1WETaWTUvl
0EWnvvXgrNSiKYeejMoOGZ1N8xguHvIuGB766atHyXLDECDJw2Ak+Lk1K+59U68x
7nMRcIT7TMlH3YMJtQuNsmvCmNOwvaQElxWAZJrpTDPWMGg/6mWoNhkhipaiNRfy
7I5Kx2rXXpct5WptlbQfKZQ345E3o754z/QV9NjO/fQmGzUvUrUbdbTKWSSUt5PB
hhfM
-----END CERTIFICATE-----
